; Function Attrs: nounwind uwtable
define dso_local i64 @time_support(ptr noundef readonly captures(none) %0) local_unnamed_addr #0 {
  %2 = getelementptr inbounds nuw i8, ptr %0, i64 32
  %3 = load i64, ptr %2, align 8
  %4 = inttoptr i64 %3 to ptr
  %5 = load i32, ptr %4, align 4
  %6 = icmp eq i32 %5, 456
  br i1 %6, label %7, label %12

7:                                                ; preds = %1
  %8 = getelementptr inbounds nuw i8, ptr %4, i64 16
  %9 = load ptr, ptr %8, align 8
  %10 = tail call ptr @TemporalSimplify(i32 noundef 6, ptr noundef %9) #16
  %11 = ptrtoint ptr %10 to i64
  br label %12

12:                                               ; preds = %7, %1
  %.0 = phi i64 [ %11, %7 ], [ 0, %1 ]
  ret i64 %.0
}